; ModuleID = 'bench/ffmpeg/original/ttadata.ll'
source_filename = "bench/ffmpeg/original/ttadata.ll"
target datalayout = "e-m:e-p270:32:32-p271:32:32-p272:64:64-i64:64-i128:128-f80:128-n8:16:32:64-S128"
target triple = "x86_64-pc-linux-gnu"

@ff_tta_shift_1 = constant [41 x i32] [i32 1, i32 2, i32 4, i32 8, i32 16, i32 32, i32 64, i32 128, i32 256, i32 512, i32 1024, i32 2048, i32 4096, i32 8192, i32 16384, i32 32768, i32 65536, i32 131072, i32 262144, i32 524288, i32 1048576, i32 2097152, i32 4194304, i32 8388608, i32 16777216, i32 33554432, i32 67108864, i32 134217728, i32 268435456, i32 536870912, i32 1073741824, i32 -2147483648, i32 -2147483648, i32 -2147483648, i32 -2147483648, i32 -2147483648, i32 -2147483648, i32 -2147483648, i32 -2147483648, i32 -2147483648, i32 -1], align 16
@ff_tta_shift_16 = local_unnamed_addr constant ptr getelementptr inbounds nuw (i8, ptr @ff_tta_shift_1, i64 16), align 8
@ff_tta_filter_configs = local_unnamed_addr constant [4 x i8] c"\0A\09\0A\0C", align 1

; Function Attrs: mustprogress nofree norecurse nosync nounwind willreturn memory(argmem: write) uwtable
define void @ff_tta_rice_init(ptr noundef writeonly captures(none) initializes((0, 16)) %0, i32 noundef %1, i32 noundef %2) local_unnamed_addr #0 {
  store i32 %1, ptr %0, align 4, !tbaa !4
  %4 = getelementptr inbounds nuw i8, ptr %0, i64 4
  store i32 %2, ptr %4, align 4, !tbaa !9
  %5 = zext i32 %1 to i64
  %6 = getelementptr inbounds nuw i32, ptr getelementptr inbounds nuw (i8, ptr @ff_tta_shift_1, i64 16), i64 %5
  %7 = load i32, ptr %6, align 4, !tbaa !10
  %8 = getelementptr inbounds nuw i8, ptr %0, i64 8
  store i32 %7, ptr %8, align 4, !tbaa !11
  %9 = zext i32 %2 to i64
  %10 = getelementptr inbounds nuw i32, ptr getelementptr inbounds nuw (i8, ptr @ff_tta_shift_1, i64 16), i64 %9
  %11 = load i32, ptr %10, align 4, !tbaa !10
  %12 = getelementptr inbounds nuw i8, ptr %0, i64 12
  store i32 %11, ptr %12, align 4, !tbaa !12
  ret void
}

; Function Attrs: mustprogress nofree norecurse nosync nounwind willreturn memory(argmem: write) uwtable
define void @ff_tta_filter_init(ptr noundef writeonly captures(none) initializes((0, 204)) %0, i32 noundef %1) local_unnamed_addr #0 {
  %3 = getelementptr inbounds nuw i8, ptr %0, i64 8
  tail call void @llvm.memset.p0.i64(ptr noundef nonnull align 4 dereferenceable(196) %3, i8 0, i64 196, i1 false)
  store i32 %1, ptr %0, align 4, !tbaa !13
  %4 = add nsw i32 %1, -1
  %5 = sext i32 %4 to i64
  %6 = getelementptr inbounds [41 x i32], ptr @ff_tta_shift_1, i64 0, i64 %5
  %7 = load i32, ptr %6, align 4, !tbaa !10
  %8 = getelementptr inbounds nuw i8, ptr %0, i64 4
  store i32 %7, ptr %8, align 4, !tbaa !15
  ret void
}

; Function Attrs: mustprogress nocallback nofree nounwind willreturn memory(argmem: write)
declare void @llvm.memset.p0.i64(ptr writeonly captures(none), i8, i64, i1 immarg) #1


!llvm.module.flags = !{!0, !1, !2, !3}

!0 = !{i32 1, !"wchar_size", i32 4}
!1 = !{i32 8, !"PIC Level", i32 2}
!2 = !{i32 7, !"uwtable", i32 2}
!3 = !{i32 1, !"override-stack-alignment", i32 16}
!4 = !{!5, !6, i64 0}
!5 = !{!"TTARice", !6, i64 0, !6, i64 4, !6, i64 8, !6, i64 12}
!6 = !{!"int", !7, i64 0}
!7 = !{!"omnipotent char", !8, i64 0}
!8 = !{!"Simple C/C++ TBAA"}
!9 = !{!5, !6, i64 4}
!10 = !{!6, !6, i64 0}
!11 = !{!5, !6, i64 8}
!12 = !{!5, !6, i64 12}
!13 = !{!14, !6, i64 0}
!14 = !{!"TTAFilter", !6, i64 0, !6, i64 4, !6, i64 8, !7, i64 12, !7, i64 76, !7, i64 140}
!15 = !{!14, !6, i64 4}
